#include <math.h>
#include <stdio.h>
#include <stdlib.h>
#include <string.h>

void main()
{
	int n,i,j;
	char *str,*substr;
	int max;
	str=(char*)malloc(20*sizeof(char));
	substr=(char*)malloc(20*sizeof(char));
	while(scanf("%s%s",str,substr)!=EOF)
	{
		n=strlen(str);
		max=0;
		for(i=0;i<n;i++)
		{
			if(*(str+i)>max)
				max=*(str+i);
		}
		for(i=0;i<n;i++)
		{
			if(*(str+i)==max)
			{
				for(j=0;j<=i;j++)
					printf("%c",*(str+j));
				printf("%s",substr);
				if(i==n-1)
				{
					printf("\n");
					break;
				}
				for(j=i+1;j<n-1;j++)
					printf("%c",*(str+j));
				printf("%c\n",*(str+n-1));
				break;
			}
		}
	}
}